target datalayout = "e-m:e-p270:32:32-p271:32:32-p272:64:64-i64:64-i128:128-f80:128-n8:16:32:64-S128"
target triple = "x86_64-pc-linux-gnu"

%struct.Texture = type { i32, i32, i32, i32, i32 }
%struct.Rectangle = type { float, float, float, float }
%struct.Color = type { i8, i8, i8, i8 }

@texShapes = internal global %struct.Texture { i32 1, i32 1, i32 1, i32 1, i32 7 }, align 4
@texShapesRec = internal global %struct.Rectangle { float 0.000000e+00, float 0.000000e+00, float 1.000000e+00, float 1.000000e+00 }, align 4

; Function Attrs: nounwind uwtable
define { <2 x float>, <2 x float> } @GetShapesTextureRectangle() #2 {
  %1 = alloca %struct.Rectangle, align 4
  call void @llvm.memcpy.p0.p0.i64(ptr align 4 %1, ptr align 4 @texShapesRec, i64 16, i1 false)
  %2 = load { <2 x float>, <2 x float> }, ptr %1, align 4
  ret { <2 x float>, <2 x float> } %2
}

; Function Attrs: nounwind uwtable
define void @GetShapesTexture(ptr dead_on_unwind noalias writable sret(%struct.Texture) align 4 %0) #2 {
  call void @llvm.memcpy.p0.p0.i64(ptr align 4 %0, ptr align 4 @texShapes, i64 20, i1 false)
  ret void
}

; Function Attrs: nounwind uwtable
define void @DrawRectangleGradientEx(<2 x float> %0, <2 x float> %1, i32 %2, i32 %3, i32 %4, i32 %5) #0 {
  %7 = alloca %struct.Rectangle, align 4
  %8 = alloca %struct.Color, align 1
  %9 = alloca %struct.Color, align 1
  %10 = alloca %struct.Color, align 1
  %11 = alloca %struct.Color, align 1
  %12 = alloca %struct.Texture, align 4
  %13 = alloca %struct.Rectangle, align 4
  %14 = getelementptr inbounds nuw { <2 x float>, <2 x float> }, ptr %7, i32 0, i32 0
  store <2 x float> %0, ptr %14, align 4
  %15 = getelementptr inbounds nuw { <2 x float>, <2 x float> }, ptr %7, i32 0, i32 1
  store <2 x float> %1, ptr %15, align 4
  store i32 %2, ptr %8, align 1
  store i32 %3, ptr %9, align 1
  store i32 %4, ptr %10, align 1
  store i32 %5, ptr %11, align 1
  call void @GetShapesTexture(ptr dead_on_unwind writable sret(%struct.Texture) align 4 %12)
  %16 = getelementptr inbounds nuw %struct.Texture, ptr %12, i32 0, i32 0
  %17 = load i32, ptr %16, align 4
  call void @rlSetTexture(i32 noundef %17)
  call void @llvm.lifetime.start.p0(i64 16, ptr %13) #8
  %18 = call { <2 x float>, <2 x float> } @GetShapesTextureRectangle()
  %19 = getelementptr inbounds nuw { <2 x float>, <2 x float> }, ptr %13, i32 0, i32 0
  %20 = extractvalue { <2 x float>, <2 x float> } %18, 0
  store <2 x float> %20, ptr %19, align 4
  %21 = getelementptr inbounds nuw { <2 x float>, <2 x float> }, ptr %13, i32 0, i32 1
  %22 = extractvalue { <2 x float>, <2 x float> } %18, 1
  store <2 x float> %22, ptr %21, align 4
  call void @rlBegin(i32 noundef 7)
  call void @rlNormal3f(float noundef 0.000000e+00, float noundef 0.000000e+00, float noundef 1.000000e+00)
  %23 = getelementptr inbounds nuw %struct.Color, ptr %8, i32 0, i32 0
  %24 = load i8, ptr %23, align 1
  %25 = getelementptr inbounds nuw %struct.Color, ptr %8, i32 0, i32 1
  %26 = load i8, ptr %25, align 1
  %27 = getelementptr inbounds nuw %struct.Color, ptr %8, i32 0, i32 2
  %28 = load i8, ptr %27, align 1
  %29 = getelementptr inbounds nuw %struct.Color, ptr %8, i32 0, i32 3
  %30 = load i8, ptr %29, align 1
  call void @rlColor4ub(i8 noundef zeroext %24, i8 noundef zeroext %26, i8 noundef zeroext %28, i8 noundef zeroext %30)
  %31 = getelementptr inbounds nuw %struct.Rectangle, ptr %13, i32 0, i32 0
  %32 = load float, ptr %31, align 4
  %33 = load i32, ptr getelementptr inbounds nuw (%struct.Texture, ptr @texShapes, i32 0, i32 1), align 4
  %34 = sitofp i32 %33 to float
  %35 = fdiv float %32, %34
  %36 = getelementptr inbounds nuw %struct.Rectangle, ptr %13, i32 0, i32 1
  %37 = load float, ptr %36, align 4
  %38 = load i32, ptr getelementptr inbounds nuw (%struct.Texture, ptr @texShapes, i32 0, i32 2), align 4
  %39 = sitofp i32 %38 to float
  %40 = fdiv float %37, %39
  call void @rlTexCoord2f(float noundef %35, float noundef %40)
  %41 = getelementptr inbounds nuw %struct.Rectangle, ptr %7, i32 0, i32 0
  %42 = load float, ptr %41, align 4
  %43 = getelementptr inbounds nuw %struct.Rectangle, ptr %7, i32 0, i32 1
  %44 = load float, ptr %43, align 4
  call void @rlVertex2f(float noundef %42, float noundef %44)
  %45 = getelementptr inbounds nuw %struct.Color, ptr %9, i32 0, i32 0
  %46 = load i8, ptr %45, align 1
  %47 = getelementptr inbounds nuw %struct.Color, ptr %9, i32 0, i32 1
  %48 = load i8, ptr %47, align 1
  %49 = getelementptr inbounds nuw %struct.Color, ptr %9, i32 0, i32 2
  %50 = load i8, ptr %49, align 1
  %51 = getelementptr inbounds nuw %struct.Color, ptr %9, i32 0, i32 3
  %52 = load i8, ptr %51, align 1
  call void @rlColor4ub(i8 noundef zeroext %46, i8 noundef zeroext %48, i8 noundef zeroext %50, i8 noundef zeroext %52)
  %53 = getelementptr inbounds nuw %struct.Rectangle, ptr %13, i32 0, i32 0
  %54 = load float, ptr %53, align 4
  %55 = load i32, ptr getelementptr inbounds nuw (%struct.Texture, ptr @texShapes, i32 0, i32 1), align 4
  %56 = sitofp i32 %55 to float
  %57 = fdiv float %54, %56
  %58 = getelementptr inbounds nuw %struct.Rectangle, ptr %13, i32 0, i32 1
  %59 = load float, ptr %58, align 4
  %60 = getelementptr inbounds nuw %struct.Rectangle, ptr %13, i32 0, i32 3
  %61 = load float, ptr %60, align 4
  %62 = fadd float %59, %61
  %63 = load i32, ptr getelementptr inbounds nuw (%struct.Texture, ptr @texShapes, i32 0, i32 2), align 4
  %64 = sitofp i32 %63 to float
  %65 = fdiv float %62, %64
  call void @rlTexCoord2f(float noundef %57, float noundef %65)
  %66 = getelementptr inbounds nuw %struct.Rectangle, ptr %7, i32 0, i32 0
  %67 = load float, ptr %66, align 4
  %68 = getelementptr inbounds nuw %struct.Rectangle, ptr %7, i32 0, i32 1
  %69 = load float, ptr %68, align 4
  %70 = getelementptr inbounds nuw %struct.Rectangle, ptr %7, i32 0, i32 3
  %71 = load float, ptr %70, align 4
  %72 = fadd float %69, %71
  call void @rlVertex2f(float noundef %67, float noundef %72)
  %73 = getelementptr inbounds nuw %struct.Color, ptr %10, i32 0, i32 0
  %74 = load i8, ptr %73, align 1
  %75 = getelementptr inbounds nuw %struct.Color, ptr %10, i32 0, i32 1
  %76 = load i8, ptr %75, align 1
  %77 = getelementptr inbounds nuw %struct.Color, ptr %10, i32 0, i32 2
  %78 = load i8, ptr %77, align 1
  %79 = getelementptr inbounds nuw %struct.Color, ptr %10, i32 0, i32 3
  %80 = load i8, ptr %79, align 1
  call void @rlColor4ub(i8 noundef zeroext %74, i8 noundef zeroext %76, i8 noundef zeroext %78, i8 noundef zeroext %80)
  %81 = getelementptr inbounds nuw %struct.Rectangle, ptr %13, i32 0, i32 0
  %82 = load float, ptr %81, align 4
  %83 = getelementptr inbounds nuw %struct.Rectangle, ptr %13, i32 0, i32 2
  %84 = load float, ptr %83, align 4
  %85 = fadd float %82, %84
  %86 = load i32, ptr getelementptr inbounds nuw (%struct.Texture, ptr @texShapes, i32 0, i32 1), align 4
  %87 = sitofp i32 %86 to float
  %88 = fdiv float %85, %87
  %89 = getelementptr inbounds nuw %struct.Rectangle, ptr %13, i32 0, i32 1
  %90 = load float, ptr %89, align 4
  %91 = getelementptr inbounds nuw %struct.Rectangle, ptr %13, i32 0, i32 3
  %92 = load float, ptr %91, align 4
  %93 = fadd float %90, %92
  %94 = load i32, ptr getelementptr inbounds nuw (%struct.Texture, ptr @texShapes, i32 0, i32 2), align 4
  %95 = sitofp i32 %94 to float
  %96 = fdiv float %93, %95
  call void @rlTexCoord2f(float noundef %88, float noundef %96)
  %97 = getelementptr inbounds nuw %struct.Rectangle, ptr %7, i32 0, i32 0
  %98 = load float, ptr %97, align 4
  %99 = getelementptr inbounds nuw %struct.Rectangle, ptr %7, i32 0, i32 2
  %100 = load float, ptr %99, align 4
  %101 = fadd float %98, %100
  %102 = getelementptr inbounds nuw %struct.Rectangle, ptr %7, i32 0, i32 1
  %103 = load float, ptr %102, align 4
  %104 = getelementptr inbounds nuw %struct.Rectangle, ptr %7, i32 0, i32 3
  %105 = load float, ptr %104, align 4
  %106 = fadd float %103, %105
  call void @rlVertex2f(float noundef %101, float noundef %106)
  %107 = getelementptr inbounds nuw %struct.Color, ptr %11, i32 0, i32 0
  %108 = load i8, ptr %107, align 1
  %109 = getelementptr inbounds nuw %struct.Color, ptr %11, i32 0, i32 1
  %110 = load i8, ptr %109, align 1
  %111 = getelementptr inbounds nuw %struct.Color, ptr %11, i32 0, i32 2
  %112 = load i8, ptr %111, align 1
  %113 = getelementptr inbounds nuw %struct.Color, ptr %11, i32 0, i32 3
  %114 = load i8, ptr %113, align 1
  call void @rlColor4ub(i8 noundef zeroext %108, i8 noundef zeroext %110, i8 noundef zeroext %112, i8 noundef zeroext %114)
  %115 = getelementptr inbounds nuw %struct.Rectangle, ptr %13, i32 0, i32 0
  %116 = load float, ptr %115, align 4
  %117 = getelementptr inbounds nuw %struct.Rectangle, ptr %13, i32 0, i32 2
  %118 = load float, ptr %117, align 4
  %119 = fadd float %116, %118
  %120 = load i32, ptr getelementptr inbounds nuw (%struct.Texture, ptr @texShapes, i32 0, i32 1), align 4
  %121 = sitofp i32 %120 to float
  %122 = fdiv float %119, %121
  %123 = getelementptr inbounds nuw %struct.Rectangle, ptr %13, i32 0, i32 1
  %124 = load float, ptr %123, align 4
  %125 = load i32, ptr getelementptr inbounds nuw (%struct.Texture, ptr @texShapes, i32 0, i32 2), align 4
  %126 = sitofp i32 %125 to float
  %127 = fdiv float %124, %126
  call void @rlTexCoord2f(float noundef %122, float noundef %127)
  %128 = getelementptr inbounds nuw %struct.Rectangle, ptr %7, i32 0, i32 0
  %129 = load float, ptr %128, align 4
  %130 = getelementptr inbounds nuw %struct.Rectangle, ptr %7, i32 0, i32 2
  %131 = load float, ptr %130, align 4
  %132 = fadd float %129, %131
  %133 = getelementptr inbounds nuw %struct.Rectangle, ptr %7, i32 0, i32 1
  %134 = load float, ptr %133, align 4
  call void @rlVertex2f(float noundef %132, float noundef %134)
  call void @rlEnd()
  call void @rlSetTexture(i32 noundef 0)
  call void @llvm.lifetime.end.p0(i64 16, ptr %13) #8
  ret void
}