; Function Attrs: nounwind uwtable
define void @DrawRectangleGradientEx(<2 x float> %0, <2 x float> %1, i32 %2, i32 %3, i32 %4, i32 %5) local_unnamed_addr #4 {
  %.sroa.026.0.extract.trunc = trunc i32 %2 to i8
  %.sroa.227.0.extract.shift = lshr i32 %2, 8
  %.sroa.227.0.extract.trunc = trunc i32 %.sroa.227.0.extract.shift to i8
  %.sroa.328.0.extract.shift = lshr i32 %2, 16
  %.sroa.328.0.extract.trunc = trunc i32 %.sroa.328.0.extract.shift to i8
  %.sroa.429.0.extract.shift = lshr i32 %2, 24
  %.sroa.429.0.extract.trunc = trunc nuw i32 %.sroa.429.0.extract.shift to i8
  %.sroa.022.0.extract.trunc = trunc i32 %3 to i8
  %.sroa.223.0.extract.shift = lshr i32 %3, 8
  %.sroa.223.0.extract.trunc = trunc i32 %.sroa.223.0.extract.shift to i8
  %.sroa.324.0.extract.shift = lshr i32 %3, 16
  %.sroa.324.0.extract.trunc = trunc i32 %.sroa.324.0.extract.shift to i8
  %.sroa.425.0.extract.shift = lshr i32 %3, 24
  %.sroa.425.0.extract.trunc = trunc nuw i32 %.sroa.425.0.extract.shift to i8
  %.sroa.018.0.extract.trunc = trunc i32 %4 to i8
  %.sroa.219.0.extract.shift = lshr i32 %4, 8
  %.sroa.219.0.extract.trunc = trunc i32 %.sroa.219.0.extract.shift to i8
  %.sroa.320.0.extract.shift = lshr i32 %4, 16
  %.sroa.320.0.extract.trunc = trunc i32 %.sroa.320.0.extract.shift to i8
  %.sroa.421.0.extract.shift = lshr i32 %4, 24
  %.sroa.421.0.extract.trunc = trunc nuw i32 %.sroa.421.0.extract.shift to i8
  %.sroa.017.0.extract.trunc = trunc i32 %5 to i8
  %.sroa.2.0.extract.shift = lshr i32 %5, 8
  %.sroa.2.0.extract.trunc = trunc i32 %.sroa.2.0.extract.shift to i8
  %.sroa.3.0.extract.shift = lshr i32 %5, 16
  %.sroa.3.0.extract.trunc = trunc i32 %.sroa.3.0.extract.shift to i8
  %.sroa.4.0.extract.shift = lshr i32 %5, 24
  %.sroa.4.0.extract.trunc = trunc nuw i32 %.sroa.4.0.extract.shift to i8
  %.sroa.0.0.copyload = load i32, ptr @texShapes, align 4
  tail call void @rlSetTexture(i32 noundef %.sroa.0.0.copyload) #16
  %.sroa.0.0.copyload.i = load <2 x float>, ptr @texShapesRec, align 8
  %.sroa.2.0.copyload.i = load <2 x float>, ptr getelementptr inbounds nuw (i8, ptr @texShapesRec, i64 8), align 8
  tail call void @rlBegin(i32 noundef 7) #16
  tail call void @rlNormal3f(float noundef 0.000000e+00, float noundef 0.000000e+00, float noundef 1.000000e+00) #16
  tail call void @rlColor4ub(i8 noundef zeroext %.sroa.026.0.extract.trunc, i8 noundef zeroext %.sroa.227.0.extract.trunc, i8 noundef zeroext %.sroa.328.0.extract.trunc, i8 noundef zeroext %.sroa.429.0.extract.trunc) #16
  %.sroa.0.0.vec.extract = extractelement <2 x float> %.sroa.0.0.copyload.i, i64 0
  %7 = load i32, ptr getelementptr inbounds nuw (i8, ptr @texShapes, i64 4), align 4
  %8 = sitofp i32 %7 to float
  %9 = fdiv float %.sroa.0.0.vec.extract, %8
  %.sroa.0.4.vec.extract = extractelement <2 x float> %.sroa.0.0.copyload.i, i64 1
  %10 = load i32, ptr getelementptr inbounds nuw (i8, ptr @texShapes, i64 8), align 4
  %11 = sitofp i32 %10 to float
  %12 = fdiv float %.sroa.0.4.vec.extract, %11
  tail call void @rlTexCoord2f(float noundef %9, float noundef %12) #16
  %.sroa.030.0.vec.extract = extractelement <2 x float> %0, i64 0
  %.sroa.030.4.vec.extract = extractelement <2 x float> %0, i64 1
  tail call void @rlVertex2f(float noundef %.sroa.030.0.vec.extract, float noundef %.sroa.030.4.vec.extract) #16
  tail call void @rlColor4ub(i8 noundef zeroext %.sroa.022.0.extract.trunc, i8 noundef zeroext %.sroa.223.0.extract.trunc, i8 noundef zeroext %.sroa.324.0.extract.trunc, i8 noundef zeroext %.sroa.425.0.extract.trunc) #16
  %13 = load i32, ptr getelementptr inbounds nuw (i8, ptr @texShapes, i64 4), align 4
  %14 = sitofp i32 %13 to float
  %15 = fdiv float %.sroa.0.0.vec.extract, %14
  %16 = fadd <2 x float> %.sroa.0.0.copyload.i, %.sroa.2.0.copyload.i
  %17 = extractelement <2 x float> %16, i64 1
  %18 = load i32, ptr getelementptr inbounds nuw (i8, ptr @texShapes, i64 8), align 4
  %19 = sitofp i32 %18 to float
  %20 = fdiv float %17, %19
  tail call void @rlTexCoord2f(float noundef %15, float noundef %20) #16
  %21 = fadd <2 x float> %0, %1
  %22 = extractelement <2 x float> %21, i64 1
  tail call void @rlVertex2f(float noundef %.sroa.030.0.vec.extract, float noundef %22) #16
  tail call void @rlColor4ub(i8 noundef zeroext %.sroa.018.0.extract.trunc, i8 noundef zeroext %.sroa.219.0.extract.trunc, i8 noundef zeroext %.sroa.320.0.extract.trunc, i8 noundef zeroext %.sroa.421.0.extract.trunc) #16
  %23 = fadd <2 x float> %.sroa.0.0.copyload.i, %.sroa.2.0.copyload.i
  %24 = extractelement <2 x float> %23, i64 0
  %25 = load i32, ptr getelementptr inbounds nuw (i8, ptr @texShapes, i64 4), align 4
  %26 = sitofp i32 %25 to float
  %27 = fdiv float %24, %26
  %28 = load i32, ptr getelementptr inbounds nuw (i8, ptr @texShapes, i64 8), align 4
  %29 = sitofp i32 %28 to float
  %30 = fdiv float %17, %29
  tail call void @rlTexCoord2f(float noundef %27, float noundef %30) #16
  %31 = fadd <2 x float> %0, %1
  %32 = extractelement <2 x float> %31, i64 0
  tail call void @rlVertex2f(float noundef %32, float noundef %22) #16
  tail call void @rlColor4ub(i8 noundef zeroext %.sroa.017.0.extract.trunc, i8 noundef zeroext %.sroa.2.0.extract.trunc, i8 noundef zeroext %.sroa.3.0.extract.trunc, i8 noundef zeroext %.sroa.4.0.extract.trunc) #16
  %33 = load i32, ptr getelementptr inbounds nuw (i8, ptr @texShapes, i64 4), align 4
  %34 = sitofp i32 %33 to float
  %35 = fdiv float %24, %34
  %36 = load i32, ptr getelementptr inbounds nuw (i8, ptr @texShapes, i64 8), align 4
  %37 = sitofp i32 %36 to float
  %38 = fdiv float %.sroa.0.4.vec.extract, %37
  tail call void @rlTexCoord2f(float noundef %35, float noundef %38) #16
  tail call void @rlVertex2f(float noundef %32, float noundef %.sroa.030.4.vec.extract) #16
  tail call void @rlEnd() #16
  tail call void @rlSetTexture(i32 noundef 0) #16
  ret void
}